target datalayout = "e-m:e-p270:32:32-p271:32:32-p272:64:64-i64:64-i128:128-f80:128-n8:16:32:64-S128"
target triple = "x86_64-unknown-linux-gnu"

%struct.btDbvtBroadphase = type { %class.btBroadphaseInterface, [2 x %struct.btDbvt], [3 x ptr], ptr, float, i32, i32, i32, i32, i32, i32, i32, i32, float, i32, i32, i32, i8, i8, i8, i8, %class.btAlignedObjectArray.0 }
%class.btBroadphaseInterface = type { ptr }
%struct.btDbvt = type { ptr, ptr, i32, i32, i32, [4 x i8], %class.btAlignedObjectArray }
%class.btAlignedObjectArray = type <{ %class.btAlignedAllocator, [3 x i8], i32, i32, [4 x i8], ptr, i8, [7 x i8] }>
%class.btAlignedAllocator = type { i8 }
%class.btAlignedObjectArray.0 = type <{ %class.btAlignedAllocator.1, [3 x i8], i32, i32, [4 x i8], ptr, i8, [7 x i8] }>
%class.btAlignedAllocator.1 = type { i8 }

; Function Attrs: mustprogress uwtable
define dso_local void @_ZN16btDbvtBroadphase9resetPoolEP12btDispatcher(ptr noundef nonnull align 8 dereferenceable(256) %this, ptr noundef %dispatcher) unnamed_addr #2 align 2 {
entry:
  %this.addr = alloca ptr, align 8
  %dispatcher.addr = alloca ptr, align 8
  %totalObjects = alloca i32, align 4
  %i = alloca i32, align 4
  store ptr %this, ptr %this.addr, align 8
  store ptr %dispatcher, ptr %dispatcher.addr, align 8
  %this1 = load ptr, ptr %this.addr, align 8
  %m_sets = getelementptr inbounds %struct.btDbvtBroadphase, ptr %this1, i32 0, i32 1
  %arrayidx = getelementptr inbounds [2 x %struct.btDbvt], ptr %m_sets, i64 0, i64 0
  %m_leaves = getelementptr inbounds %struct.btDbvt, ptr %arrayidx, i32 0, i32 3
  %0 = load i32, ptr %m_leaves, align 4
  %m_sets2 = getelementptr inbounds %struct.btDbvtBroadphase, ptr %this1, i32 0, i32 1
  %arrayidx3 = getelementptr inbounds [2 x %struct.btDbvt], ptr %m_sets2, i64 0, i64 1
  %m_leaves4 = getelementptr inbounds %struct.btDbvt, ptr %arrayidx3, i32 0, i32 3
  %1 = load i32, ptr %m_leaves4, align 4
  %add = add nsw i32 %0, %1
  store i32 %add, ptr %totalObjects, align 4
  %2 = load i32, ptr %totalObjects, align 4
  %tobool = icmp ne i32 %2, 0
  br i1 %tobool, label %if.end, label %if.then

if.then:                                          ; preds = %entry
  %m_sets5 = getelementptr inbounds %struct.btDbvtBroadphase, ptr %this1, i32 0, i32 1
  %arrayidx6 = getelementptr inbounds [2 x %struct.btDbvt], ptr %m_sets5, i64 0, i64 0
  call void @_ZN6btDbvt5clearEv(ptr noundef nonnull align 8 dereferenceable(64) %arrayidx6)
  %m_sets7 = getelementptr inbounds %struct.btDbvtBroadphase, ptr %this1, i32 0, i32 1
  %arrayidx8 = getelementptr inbounds [2 x %struct.btDbvt], ptr %m_sets7, i64 0, i64 1
  call void @_ZN6btDbvt5clearEv(ptr noundef nonnull align 8 dereferenceable(64) %arrayidx8)
  %m_deferedcollide = getelementptr inbounds %struct.btDbvtBroadphase, ptr %this1, i32 0, i32 18
  store i8 0, ptr %m_deferedcollide, align 1
  %m_needcleanup = getelementptr inbounds %struct.btDbvtBroadphase, ptr %this1, i32 0, i32 19
  store i8 1, ptr %m_needcleanup, align 2
  %m_stageCurrent = getelementptr inbounds %struct.btDbvtBroadphase, ptr %this1, i32 0, i32 5
  store i32 0, ptr %m_stageCurrent, align 4
  %m_fixedleft = getelementptr inbounds %struct.btDbvtBroadphase, ptr %this1, i32 0, i32 10
  store i32 0, ptr %m_fixedleft, align 8
  %m_fupdates = getelementptr inbounds %struct.btDbvtBroadphase, ptr %this1, i32 0, i32 6
  store i32 1, ptr %m_fupdates, align 8
  %m_dupdates = getelementptr inbounds %struct.btDbvtBroadphase, ptr %this1, i32 0, i32 7
  store i32 0, ptr %m_dupdates, align 4
  %m_cupdates = getelementptr inbounds %struct.btDbvtBroadphase, ptr %this1, i32 0, i32 8
  store i32 10, ptr %m_cupdates, align 8
  %m_newpairs = getelementptr inbounds %struct.btDbvtBroadphase, ptr %this1, i32 0, i32 9
  store i32 1, ptr %m_newpairs, align 4
  %m_updates_call = getelementptr inbounds %struct.btDbvtBroadphase, ptr %this1, i32 0, i32 11
  store i32 0, ptr %m_updates_call, align 4
  %m_updates_done = getelementptr inbounds %struct.btDbvtBroadphase, ptr %this1, i32 0, i32 12
  store i32 0, ptr %m_updates_done, align 8
  %m_updates_ratio = getelementptr inbounds %struct.btDbvtBroadphase, ptr %this1, i32 0, i32 13
  store float 0.000000e+00, ptr %m_updates_ratio, align 4
  %m_gid = getelementptr inbounds %struct.btDbvtBroadphase, ptr %this1, i32 0, i32 16
  store i32 0, ptr %m_gid, align 8
  %m_pid = getelementptr inbounds %struct.btDbvtBroadphase, ptr %this1, i32 0, i32 14
  store i32 0, ptr %m_pid, align 8
  %m_cid = getelementptr inbounds %struct.btDbvtBroadphase, ptr %this1, i32 0, i32 15
  store i32 0, ptr %m_cid, align 4
  store i32 0, ptr %i, align 4
  br label %for.cond

for.cond:                                         ; preds = %for.inc, %if.then
  %3 = load i32, ptr %i, align 4
  %cmp = icmp sle i32 %3, 2
  br i1 %cmp, label %for.body, label %for.end

for.body:                                         ; preds = %for.cond
  %m_stageRoots = getelementptr inbounds %struct.btDbvtBroadphase, ptr %this1, i32 0, i32 2
  %4 = load i32, ptr %i, align 4
  %idxprom = sext i32 %4 to i64
  %arrayidx9 = getelementptr inbounds [3 x ptr], ptr %m_stageRoots, i64 0, i64 %idxprom
  store ptr null, ptr %arrayidx9, align 8
  br label %for.inc

for.inc:                                          ; preds = %for.body
  %5 = load i32, ptr %i, align 4
  %inc = add nsw i32 %5, 1
  store i32 %inc, ptr %i, align 4
  br label %for.cond, !llvm.loop !18

for.end:                                          ; preds = %for.cond
  br label %if.end

if.end:                                           ; preds = %for.end, %entry
  ret void
}