; Function Attrs: mustprogress uwtable
define dso_local void @_ZN16btDbvtBroadphase9resetPoolEP12btDispatcher(ptr noundef nonnull align 8 dereferenceable(256) %this, ptr nocapture readnone %dispatcher) unnamed_addr #0 align 2 {
entry:
  %m_leaves = getelementptr inbounds i8, ptr %this, i64 28
  %0 = load i32, ptr %m_leaves, align 4
  %m_leaves4 = getelementptr inbounds i8, ptr %this, i64 92
  %1 = load i32, ptr %m_leaves4, align 4
  %add = sub i32 0, %1
  %tobool.not = icmp eq i32 %0, %add
  br i1 %tobool.not, label %if.then, label %if.end

if.then:                                          ; preds = %entry
  %arrayidx3 = getelementptr inbounds i8, ptr %this, i64 72
  %m_sets = getelementptr inbounds i8, ptr %this, i64 8
  tail call void @_ZN6btDbvt5clearEv(ptr noundef nonnull align 8 dereferenceable(64) %m_sets)
  tail call void @_ZN6btDbvt5clearEv(ptr noundef nonnull align 8 dereferenceable(64) %arrayidx3)
  %m_deferedcollide = getelementptr inbounds i8, ptr %this, i64 221
  store i8 0, ptr %m_deferedcollide, align 1
  %m_needcleanup = getelementptr inbounds i8, ptr %this, i64 222
  store i8 1, ptr %m_needcleanup, align 2
  %m_stageCurrent = getelementptr inbounds i8, ptr %this, i64 172
  %m_fixedleft = getelementptr inbounds i8, ptr %this, i64 192
  store i32 0, ptr %m_fixedleft, align 8
  store <4 x i32> <i32 0, i32 1, i32 0, i32 10>, ptr %m_stageCurrent, align 4
  %m_newpairs = getelementptr inbounds i8, ptr %this, i64 188
  store i32 1, ptr %m_newpairs, align 4
  %m_updates_call = getelementptr inbounds i8, ptr %this, i64 196
  %m_stageRoots = getelementptr inbounds i8, ptr %this, i64 136
  tail call void @llvm.memset.p0.i64(ptr noundef nonnull align 8 dereferenceable(24) %m_stageRoots, i8 0, i64 24, i1 false)
  tail call void @llvm.memset.p0.i64(ptr noundef nonnull align 4 dereferenceable(24) %m_updates_call, i8 0, i64 24, i1 false)
  br label %if.end

if.end:                                           ; preds = %if.then, %entry
  ret void
}